; ModuleID = '43/1522.c'
source_filename = "43/1522.c"
target datalayout = "e-m:e-p270:32:32-p271:32:32-p272:64:64-i64:64-f80:128-n8:16:32:64-S128"
target triple = "x86_64-pc-linux-gnu"

@.str = private unnamed_addr constant [3 x i8] c"%d\00", align 1
@.str.1 = private unnamed_addr constant [7 x i8] c"%d %d\0A\00", align 1

; Function Attrs: noinline nounwind uwtable
define dso_local i32 @main() #0 {
  %1 = alloca i32, align 4
  %2 = alloca i32, align 4
  %3 = alloca i32, align 4
  %4 = alloca i32, align 4
  %5 = alloca i32, align 4
  %6 = alloca i32, align 4
  %7 = alloca i32, align 4
  store i32 0, i32* %1, align 4
  %8 = call i32 (i8*, ...) @__isoc99_scanf(i8* getelementptr inbounds ([3 x i8], [3 x i8]* @.str, i64 0, i64 0), i32* %2)
  store i32 1, i32* %3, align 4
  br label %9

9:                                                ; preds = %42, %0
  %10 = load i32, i32* %3, align 4
  %11 = mul nsw i32 2, %10
  %12 = load i32, i32* %2, align 4
  %13 = sub nsw i32 %12, 3
  %14 = icmp slt i32 %11, %13
  br i1 %14, label %15, label %45

15:                                               ; preds = %9
  %16 = load i32, i32* %3, align 4
  %17 = mul nsw i32 2, %16
  %18 = add nsw i32 %17, 1
  store i32 %18, i32* %6, align 4
  %19 = load i32, i32* %2, align 4
  %20 = sub nsw i32 %19, 1
  %21 = load i32, i32* %3, align 4
  %22 = mul nsw i32 2, %21
  %23 = sub nsw i32 %20, %22
  store i32 %23, i32* %7, align 4
  %24 = load i32, i32* %6, align 4
  %25 = call i32 @pa(i32 %24)
  store i32 %25, i32* %4, align 4
  %26 = load i32, i32* %7, align 4
  %27 = call i32 @pa(i32 %26)
  store i32 %27, i32* %5, align 4
  %28 = load i32, i32* %4, align 4
  %29 = icmp eq i32 %28, 0
  br i1 %29, label %30, label %41

30:                                               ; preds = %15
  %31 = load i32, i32* %5, align 4
  %32 = icmp eq i32 %31, 0
  br i1 %32, label %33, label %41

33:                                               ; preds = %30
  %34 = load i32, i32* %6, align 4
  %35 = load i32, i32* %7, align 4
  %36 = icmp sle i32 %34, %35
  br i1 %36, label %37, label %41

37:                                               ; preds = %33
  %38 = load i32, i32* %6, align 4
  %39 = load i32, i32* %7, align 4
  %40 = call i32 (i8*, ...) @printf(i8* getelementptr inbounds ([7 x i8], [7 x i8]* @.str.1, i64 0, i64 0), i32 %38, i32 %39)
  br label %41

41:                                               ; preds = %37, %33, %30, %15
  br label %42

42:                                               ; preds = %41
  %43 = load i32, i32* %3, align 4
  %44 = add nsw i32 %43, 1
  store i32 %44, i32* %3, align 4
  br label %9

45:                                               ; preds = %9
  ret i32 0
}

declare dso_local i32 @__isoc99_scanf(i8*, ...) #1

; Function Attrs: noinline nounwind uwtable
define dso_local i32 @pa(i32 %0) #0 {
  %2 = alloca i32, align 4
  %3 = alloca i32, align 4
  %4 = alloca i32, align 4
  store i32 %0, i32* %2, align 4
  store i32 0, i32* %4, align 4
  %5 = load i32, i32* %2, align 4
  %6 = sub nsw i32 %5, 1
  store i32 %6, i32* %3, align 4
  br label %7

7:                                                ; preds = %19, %1
  %8 = load i32, i32* %3, align 4
  %9 = icmp sgt i32 %8, 1
  br i1 %9, label %10, label %22

10:                                               ; preds = %7
  %11 = load i32, i32* %2, align 4
  %12 = load i32, i32* %3, align 4
  %13 = srem i32 %11, %12
  %14 = icmp eq i32 %13, 0
  br i1 %14, label %15, label %18

15:                                               ; preds = %10
  %16 = load i32, i32* %4, align 4
  %17 = add nsw i32 %16, 1
  store i32 %17, i32* %4, align 4
  br label %18

18:                                               ; preds = %15, %10
  br label %19

19:                                               ; preds = %18
  %20 = load i32, i32* %3, align 4
  %21 = add nsw i32 %20, -1
  store i32 %21, i32* %3, align 4
  br label %7

22:                                               ; preds = %7
  %23 = load i32, i32* %4, align 4
  ret i32 %23
}

declare dso_local i32 @printf(i8*, ...) #1


!llvm.module.flags = !{!0}
!llvm.ident = !{!1}

!0 = !{i32 1, !"wchar_size", i32 4}
!1 = !{!"clang version 10.0.0-4ubuntu1 "}
